target datalayout = "e-m:e-p270:32:32-p271:32:32-p272:64:64-i64:64-i128:128-f80:128-n8:16:32:64-S128"
target triple = "x86_64-pc-linux-gnu"

%struct.dt_lib_t = type { ptr, ptr, %struct.anon }
%struct.anon = type { %struct.anon.0, %struct.anon.1, %struct.anon.2, %struct.anon.3 }
%struct.anon.0 = type { ptr, ptr, ptr, ptr, ptr, i32, i32, i32, ptr, ptr, ptr, ptr, ptr }
%struct.anon.1 = type { ptr, ptr, i32 }
%struct.anon.2 = type { ptr }
%struct.anon.3 = type { i32 }

; Function Attrs: nounwind uwtable
define void @dt_lib_colorpicker_setup(ptr noundef %0, i32 noundef %1, i32 noundef %2) #0 {
  %4 = alloca ptr, align 8
  %5 = alloca i32, align 4
  %6 = alloca i32, align 4
  store ptr %0, ptr %4, align 8, !tbaa !181
  store i32 %1, ptr %5, align 4, !tbaa !62
  store i32 %2, ptr %6, align 4, !tbaa !62
  %7 = load ptr, ptr %4, align 8, !tbaa !181
  %8 = getelementptr inbounds nuw %struct.dt_lib_t, ptr %7, i32 0, i32 2
  %9 = getelementptr inbounds nuw %struct.anon, ptr %8, i32 0, i32 0
  %10 = getelementptr inbounds nuw %struct.anon.0, ptr %9, i32 0, i32 0
  %11 = load ptr, ptr %10, align 8, !tbaa !209
  %12 = icmp ne ptr %11, null
  br i1 %12, label %13, label %20

13:                                               ; preds = %3
  %14 = load ptr, ptr %4, align 8, !tbaa !181
  %15 = getelementptr inbounds nuw %struct.dt_lib_t, ptr %14, i32 0, i32 2
  %16 = getelementptr inbounds nuw %struct.anon, ptr %15, i32 0, i32 0
  %17 = getelementptr inbounds nuw %struct.anon.0, ptr %16, i32 0, i32 12
  %18 = load ptr, ptr %17, align 8, !tbaa !212
  %19 = icmp ne ptr %18, null
  br i1 %19, label %21, label %20

20:                                               ; preds = %13, %3
  br label %34

21:                                               ; preds = %13
  %22 = load ptr, ptr %4, align 8, !tbaa !181
  %23 = getelementptr inbounds nuw %struct.dt_lib_t, ptr %22, i32 0, i32 2
  %24 = getelementptr inbounds nuw %struct.anon, ptr %23, i32 0, i32 0
  %25 = getelementptr inbounds nuw %struct.anon.0, ptr %24, i32 0, i32 12
  %26 = load ptr, ptr %25, align 8, !tbaa !212
  %27 = load ptr, ptr %4, align 8, !tbaa !181
  %28 = getelementptr inbounds nuw %struct.dt_lib_t, ptr %27, i32 0, i32 2
  %29 = getelementptr inbounds nuw %struct.anon, ptr %28, i32 0, i32 0
  %30 = getelementptr inbounds nuw %struct.anon.0, ptr %29, i32 0, i32 0
  %31 = load ptr, ptr %30, align 8, !tbaa !209
  %32 = load i32, ptr %5, align 4, !tbaa !62
  %33 = load i32, ptr %6, align 4, !tbaa !62
  call void %26(ptr noundef %31, i32 noundef %32, i32 noundef %33)
  br label %34

34:                                               ; preds = %21, %20
  ret void
}