; Function Attrs: nounwind uwtable
define void @dt_lib_colorpicker_setup(ptr noundef readonly captures(none) %0, i32 noundef %1, i32 noundef %2) local_unnamed_addr #0 {
  %4 = getelementptr inbounds nuw i8, ptr %0, i64 16
  %5 = load ptr, ptr %4, align 8, !tbaa !173
  %.not = icmp eq ptr %5, null
  br i1 %.not, label %10, label %6

6:                                                ; preds = %3
  %7 = getelementptr inbounds nuw i8, ptr %0, i64 104
  %8 = load ptr, ptr %7, align 8, !tbaa !176
  %.not6 = icmp eq ptr %8, null
  br i1 %.not6, label %10, label %9

9:                                                ; preds = %6
  tail call void %8(ptr noundef nonnull %5, i32 noundef %1, i32 noundef %2) #19
  br label %10

10:                                               ; preds = %3, %6, %9
  ret void
}